; ModuleID = '12/1071.c'
source_filename = "12/1071.c"
target datalayout = "e-m:e-p270:32:32-p271:32:32-p272:64:64-i64:64-f80:128-n8:16:32:64-S128"
target triple = "x86_64-pc-linux-gnu"

@.str = private unnamed_addr constant [3 x i8] c"%f\00", align 1
@.str.1 = private unnamed_addr constant [4 x i8] c"%d\0A\00", align 1

; Function Attrs: noinline nounwind uwtable
define dso_local i32 @main() #0 {
  %1 = alloca i32, align 4
  %2 = alloca i32, align 4
  %3 = alloca i32, align 4
  %4 = alloca i32, align 4
  %5 = alloca i32, align 4
  %6 = alloca [1000 x float], align 16
  %7 = alloca [100 x i32], align 16
  %8 = alloca [100 x i32], align 16
  store i32 0, i32* %1, align 4
  store i32 0, i32* %2, align 4
  br label %9

9:                                                ; preds = %16, %0
  %10 = load i32, i32* %2, align 4
  %11 = icmp slt i32 %10, 100
  br i1 %11, label %12, label %19

12:                                               ; preds = %9
  %13 = load i32, i32* %2, align 4
  %14 = sext i32 %13 to i64
  %15 = getelementptr inbounds [100 x i32], [100 x i32]* %8, i64 0, i64 %14
  store i32 -1, i32* %15, align 4
  br label %16

16:                                               ; preds = %12
  %17 = load i32, i32* %2, align 4
  %18 = add nsw i32 %17, 1
  store i32 %18, i32* %2, align 4
  br label %9

19:                                               ; preds = %9
  store i32 0, i32* %2, align 4
  store i32 1, i32* %3, align 4
  %20 = getelementptr inbounds [100 x i32], [100 x i32]* %7, i64 0, i64 0
  store i32 -1, i32* %20, align 16
  store i32 1, i32* %2, align 4
  br label %21

21:                                               ; preds = %28, %19
  %22 = load i32, i32* %2, align 4
  %23 = icmp slt i32 %22, 100
  br i1 %23, label %24, label %31

24:                                               ; preds = %21
  %25 = load i32, i32* %2, align 4
  %26 = sext i32 %25 to i64
  %27 = getelementptr inbounds [100 x i32], [100 x i32]* %7, i64 0, i64 %26
  store i32 0, i32* %27, align 4
  br label %28

28:                                               ; preds = %24
  %29 = load i32, i32* %2, align 4
  %30 = add nsw i32 %29, 1
  store i32 %30, i32* %2, align 4
  br label %21

31:                                               ; preds = %21
  store i32 0, i32* %4, align 4
  store i32 0, i32* %2, align 4
  br label %32

32:                                               ; preds = %48, %31
  %33 = load i32, i32* %2, align 4
  %34 = icmp slt i32 %33, 1000
  br i1 %34, label %35, label %51

35:                                               ; preds = %32
  %36 = load i32, i32* %2, align 4
  %37 = sext i32 %36 to i64
  %38 = getelementptr inbounds [1000 x float], [1000 x float]* %6, i64 0, i64 %37
  %39 = call i32 (i8*, ...) @__isoc99_scanf(i8* getelementptr inbounds ([3 x i8], [3 x i8]* @.str, i64 0, i64 0), float* %38)
  %40 = load i32, i32* %2, align 4
  %41 = sext i32 %40 to i64
  %42 = getelementptr inbounds [1000 x float], [1000 x float]* %6, i64 0, i64 %41
  %43 = load float, float* %42, align 4
  %44 = fcmp oeq float %43, -1.000000e+00
  br i1 %44, label %45, label %47

45:                                               ; preds = %35
  %46 = load i32, i32* %2, align 4
  store i32 %46, i32* %4, align 4
  br label %51

47:                                               ; preds = %35
  br label %48

48:                                               ; preds = %47
  %49 = load i32, i32* %2, align 4
  %50 = add nsw i32 %49, 1
  store i32 %50, i32* %2, align 4
  br label %32

51:                                               ; preds = %45, %32
  store i32 0, i32* %2, align 4
  br label %52

52:                                               ; preds = %70, %51
  %53 = load i32, i32* %2, align 4
  %54 = load i32, i32* %4, align 4
  %55 = icmp slt i32 %53, %54
  br i1 %55, label %56, label %73

56:                                               ; preds = %52
  %57 = load i32, i32* %2, align 4
  %58 = sext i32 %57 to i64
  %59 = getelementptr inbounds [1000 x float], [1000 x float]* %6, i64 0, i64 %58
  %60 = load float, float* %59, align 4
  %61 = fcmp oeq float %60, 0.000000e+00
  br i1 %61, label %62, label %69

62:                                               ; preds = %56
  %63 = load i32, i32* %2, align 4
  %64 = load i32, i32* %3, align 4
  %65 = sext i32 %64 to i64
  %66 = getelementptr inbounds [100 x i32], [100 x i32]* %7, i64 0, i64 %65
  store i32 %63, i32* %66, align 4
  %67 = load i32, i32* %3, align 4
  %68 = add nsw i32 %67, 1
  store i32 %68, i32* %3, align 4
  br label %69

69:                                               ; preds = %62, %56
  br label %70

70:                                               ; preds = %69
  %71 = load i32, i32* %2, align 4
  %72 = add nsw i32 %71, 1
  store i32 %72, i32* %2, align 4
  br label %52

73:                                               ; preds = %52
  store i32 1, i32* %5, align 4
  br label %74

74:                                               ; preds = %136, %73
  %75 = load i32, i32* %5, align 4
  %76 = sext i32 %75 to i64
  %77 = getelementptr inbounds [100 x i32], [100 x i32]* %7, i64 0, i64 %76
  %78 = load i32, i32* %77, align 4
  %79 = icmp ne i32 %78, 0
  br i1 %79, label %80, label %139

80:                                               ; preds = %74
  %81 = load i32, i32* %5, align 4
  %82 = sext i32 %81 to i64
  %83 = getelementptr inbounds [100 x i32], [100 x i32]* %8, i64 0, i64 %82
  store i32 0, i32* %83, align 4
  %84 = load i32, i32* %5, align 4
  %85 = sub nsw i32 %84, 1
  %86 = sext i32 %85 to i64
  %87 = getelementptr inbounds [100 x i32], [100 x i32]* %7, i64 0, i64 %86
  %88 = load i32, i32* %87, align 4
  %89 = add nsw i32 %88, 1
  store i32 %89, i32* %2, align 4
  br label %90

90:                                               ; preds = %133, %80
  %91 = load i32, i32* %2, align 4
  %92 = load i32, i32* %5, align 4
  %93 = sext i32 %92 to i64
  %94 = getelementptr inbounds [100 x i32], [100 x i32]* %7, i64 0, i64 %93
  %95 = load i32, i32* %94, align 4
  %96 = icmp slt i32 %91, %95
  br i1 %96, label %97, label %136

97:                                               ; preds = %90
  %98 = load i32, i32* %5, align 4
  %99 = sub nsw i32 %98, 1
  %100 = sext i32 %99 to i64
  %101 = getelementptr inbounds [100 x i32], [100 x i32]* %7, i64 0, i64 %100
  %102 = load i32, i32* %101, align 4
  %103 = add nsw i32 %102, 1
  store i32 %103, i32* %3, align 4
  br label %104

104:                                              ; preds = %129, %97
  %105 = load i32, i32* %3, align 4
  %106 = load i32, i32* %5, align 4
  %107 = sext i32 %106 to i64
  %108 = getelementptr inbounds [100 x i32], [100 x i32]* %7, i64 0, i64 %107
  %109 = load i32, i32* %108, align 4
  %110 = icmp slt i32 %105, %109
  br i1 %110, label %111, label %132

111:                                              ; preds = %104
  %112 = load i32, i32* %2, align 4
  %113 = sext i32 %112 to i64
  %114 = getelementptr inbounds [1000 x float], [1000 x float]* %6, i64 0, i64 %113
  %115 = load float, float* %114, align 4
  %116 = load i32, i32* %3, align 4
  %117 = sext i32 %116 to i64
  %118 = getelementptr inbounds [1000 x float], [1000 x float]* %6, i64 0, i64 %117
  %119 = load float, float* %118, align 4
  %120 = fdiv float %115, %119
  %121 = fcmp oeq float %120, 2.000000e+00
  br i1 %121, label %122, label %128

122:                                              ; preds = %111
  %123 = load i32, i32* %5, align 4
  %124 = sext i32 %123 to i64
  %125 = getelementptr inbounds [100 x i32], [100 x i32]* %8, i64 0, i64 %124
  %126 = load i32, i32* %125, align 4
  %127 = add nsw i32 %126, 1
  store i32 %127, i32* %125, align 4
  br label %128

128:                                              ; preds = %122, %111
  br label %129

129:                                              ; preds = %128
  %130 = load i32, i32* %3, align 4
  %131 = add nsw i32 %130, 1
  store i32 %131, i32* %3, align 4
  br label %104

132:                                              ; preds = %104
  br label %133

133:                                              ; preds = %132
  %134 = load i32, i32* %2, align 4
  %135 = add nsw i32 %134, 1
  store i32 %135, i32* %2, align 4
  br label %90

136:                                              ; preds = %90
  %137 = load i32, i32* %5, align 4
  %138 = add nsw i32 %137, 1
  store i32 %138, i32* %5, align 4
  br label %74

139:                                              ; preds = %74
  store i32 1, i32* %5, align 4
  br label %140

140:                                              ; preds = %146, %139
  %141 = load i32, i32* %5, align 4
  %142 = sext i32 %141 to i64
  %143 = getelementptr inbounds [100 x i32], [100 x i32]* %8, i64 0, i64 %142
  %144 = load i32, i32* %143, align 4
  %145 = icmp ne i32 %144, -1
  br i1 %145, label %146, label %154

146:                                              ; preds = %140
  %147 = load i32, i32* %5, align 4
  %148 = sext i32 %147 to i64
  %149 = getelementptr inbounds [100 x i32], [100 x i32]* %8, i64 0, i64 %148
  %150 = load i32, i32* %149, align 4
  %151 = call i32 (i8*, ...) @printf(i8* getelementptr inbounds ([4 x i8], [4 x i8]* @.str.1, i64 0, i64 0), i32 %150)
  %152 = load i32, i32* %5, align 4
  %153 = add nsw i32 %152, 1
  store i32 %153, i32* %5, align 4
  br label %140

154:                                              ; preds = %140
  ret i32 0
}

declare dso_local i32 @__isoc99_scanf(i8*, ...) #1

declare dso_local i32 @printf(i8*, ...) #1


!llvm.module.flags = !{!0}
!llvm.ident = !{!1}

!0 = !{i32 1, !"wchar_size", i32 4}
!1 = !{!"clang version 10.0.0-4ubuntu1 "}
